target datalayout = "e-m:e-p270:32:32-p271:32:32-p272:64:64-i64:64-i128:128-f80:128-n8:16:32:64-S128"
target triple = "x86_64-pc-linux-gnu"

%"class.clang::SourceLocation" = type { i32 }
%"class.clang::CXXScopeSpec" = type { %"class.clang::SourceRange", %"class.clang::NestedNameSpecifierLocBuilder", %"class.llvm::ArrayRef" }
%"class.clang::SourceRange" = type { %"class.clang::SourceLocation", %"class.clang::SourceLocation" }
%"class.clang::NestedNameSpecifierLocBuilder" = type { ptr, ptr, i32, i32 }
%"class.llvm::ArrayRef" = type { ptr, i64 }
%"class.clang::ParsedAttributesView" = type { %"class.clang::SourceRange", %"class.llvm::SmallVector.342" }
%"class.llvm::SmallVector.342" = type { %"class.llvm::SmallVectorImpl.343", %"struct.llvm::SmallVectorStorage.346" }
%"class.llvm::SmallVectorImpl.343" = type { %"class.llvm::SmallVectorTemplateBase.344" }
%"class.llvm::SmallVectorTemplateBase.344" = type { %"class.llvm::SmallVectorTemplateCommon.345" }
%"class.llvm::SmallVectorTemplateCommon.345" = type { %"class.llvm::SmallVectorBase" }
%"class.llvm::SmallVectorBase" = type { ptr, i32, i32 }
%"struct.llvm::SmallVectorStorage.346" = type { [48 x i8] }
%"struct.clang::UnionOpaquePtr" = type { ptr }
%"class.clang::ParsedAttributes" = type { %"class.clang::ParsedAttributesView", %"class.clang::AttributePool" }
%"class.clang::AttributePool" = type { ptr, %"class.llvm::SmallVector.342" }
%"class.clang::DeclSpec" = type { i64, %union.anon.349, ptr, %"class.clang::ExplicitSpecifier", %"class.clang::ParsedAttributes", %"class.clang::CXXScopeSpec", %"class.clang::SourceRange", %"class.clang::SourceLocation", %"class.clang::SourceLocation", %"class.clang::SourceRange", %"class.clang::SourceLocation", %"class.clang::SourceLocation", %"class.clang::SourceLocation", %"class.clang::SourceLocation", %"class.clang::SourceLocation", %"class.clang::SourceLocation", %"class.clang::SourceLocation", %"class.clang::SourceRange", %"class.clang::SourceLocation", %"class.clang::SourceLocation", %"class.clang::SourceLocation", %"class.clang::SourceLocation", %"class.clang::SourceLocation", %"class.clang::SourceLocation", %"class.clang::SourceLocation", %"class.clang::SourceLocation", %"class.clang::SourceLocation", %"class.clang::SourceLocation", %"class.clang::SourceLocation", %"class.clang::SourceLocation", %"class.clang::SourceLocation", %"class.clang::SourceLocation", %"class.clang::SourceLocation", %"struct.clang::WrittenBuiltinSpecs", ptr }
%union.anon.349 = type { %"struct.clang::UnionOpaquePtr" }
%"class.clang::ExplicitSpecifier" = type { %"class.llvm::PointerIntPair.350" }
%"class.llvm::PointerIntPair.350" = type { %"struct.llvm::detail::PunnedPointer.351" }
%"struct.llvm::detail::PunnedPointer.351" = type { [8 x i8] }
%"struct.clang::WrittenBuiltinSpecs" = type { i16, [2 x i8] }

@.str.102 = private unnamed_addr constant [19 x i8] c"__module_private__\00", align 1

; Function Attrs: mustprogress nounwind uwtable
define linkonce_odr hidden noundef zeroext i1 @_ZNK5clang14SourceLocation7isValidEv(ptr noundef nonnull align 4 dereferenceable(4) %0) #0 comdat align 2 {
  %2 = alloca ptr, align 8
  store ptr %0, ptr %2, align 8
  %3 = load ptr, ptr %2, align 8
  %4 = getelementptr inbounds nuw %"class.clang::SourceLocation", ptr %3, i32 0, i32 0
  %5 = load i32, ptr %4, align 4
  %6 = icmp ne i32 %5, 0
  ret i1 %6
}

; Function Attrs: mustprogress nounwind uwtable
define linkonce_odr hidden noundef zeroext i1 @_ZNK5clang8DeclSpec24isModulePrivateSpecifiedEv(ptr noundef nonnull align 8 dereferenceable(360) %0) #0 comdat align 2 {
  %2 = alloca ptr, align 8
  store ptr %0, ptr %2, align 8
  %3 = load ptr, ptr %2, align 8
  %4 = getelementptr inbounds nuw %"class.clang::DeclSpec", ptr %3, i32 0, i32 30
  %5 = call noundef zeroext i1 @_ZNK5clang14SourceLocation7isValidEv(ptr noundef nonnull align 4 dereferenceable(4) %4)
  ret i1 %5
}

; Function Attrs: mustprogress nounwind uwtable
define dso_local noundef zeroext i1 @_ZN5clang8DeclSpec20setModulePrivateSpecENS_14SourceLocationERPKcRj(ptr noundef nonnull align 8 dereferenceable(360) %0, i32 %1, ptr noundef nonnull align 8 dereferenceable(8) %2, ptr noundef nonnull align 4 dereferenceable(4) %3) #0 align 2 {
  %5 = alloca i1, align 1
  %6 = alloca %"class.clang::SourceLocation", align 4
  %7 = alloca ptr, align 8
  %8 = alloca ptr, align 8
  %9 = alloca ptr, align 8
  %10 = getelementptr inbounds nuw %"class.clang::SourceLocation", ptr %6, i32 0, i32 0
  store i32 %1, ptr %10, align 4
  store ptr %0, ptr %7, align 8
  store ptr %2, ptr %8, align 8
  store ptr %3, ptr %9, align 8
  %11 = load ptr, ptr %7, align 8
  %12 = call noundef zeroext i1 @_ZNK5clang8DeclSpec24isModulePrivateSpecifiedEv(ptr noundef nonnull align 8 dereferenceable(360) %11)
  br i1 %12, label %13, label %16

13:                                               ; preds = %4
  %14 = load ptr, ptr %8, align 8
  store ptr @.str.102, ptr %14, align 8
  %15 = load ptr, ptr %9, align 8
  store i32 99, ptr %15, align 4
  store i1 true, ptr %5, align 1
  br label %18

16:                                               ; preds = %4
  %17 = getelementptr inbounds nuw %"class.clang::DeclSpec", ptr %11, i32 0, i32 30
  call void @llvm.memcpy.p0.p0.i64(ptr align 4 %17, ptr align 4 %6, i64 4, i1 false)
  store i1 false, ptr %5, align 1
  br label %18

18:                                               ; preds = %16, %13
  %19 = load i1, ptr %5, align 1
  ret i1 %19
}