; Function Attrs: mustprogress nofree norecurse nosync nounwind willreturn memory(argmem: readwrite) uwtable
define dso_local noundef zeroext i1 @_ZN5clang8DeclSpec20setModulePrivateSpecENS_14SourceLocationERPKcRj(ptr nocapture noundef nonnull align 8 dereferenceable(360) %0, i32 %1, ptr nocapture noundef nonnull writeonly align 8 dereferenceable(8) %2, ptr nocapture noundef nonnull writeonly align 4 dereferenceable(4) %3) local_unnamed_addr #0 align 2 {
  %5 = getelementptr inbounds nuw i8, ptr %0, i64 332
  %6 = load i32, ptr %5, align 4
  %7 = icmp ne i32 %6, 0
  br i1 %7, label %8, label %9

8:                                                ; preds = %4
  store ptr @.str.102, ptr %2, align 8
  store i32 99, ptr %3, align 4
  br label %10

9:                                                ; preds = %4
  store i32 %1, ptr %5, align 4
  br label %10

10:                                               ; preds = %9, %8
  ret i1 %7
}